; Function Attrs: mustprogress nofree norecurse nosync nounwind willreturn memory(argmem: readwrite) uwtable
define internal fastcc noundef zeroext i1 @_ZN5arrow8internal6detailL9ParseHHMMINSt6chrono8durationIlSt5ratioILl1ELl1EEEEEEbPKcPT_(ptr nocapture noundef readonly %s, ptr nocapture noundef writeonly %out) unnamed_addr #13 {
entry:
  %0 = load i8, ptr %s, align 1
  %sub.i.i = add i8 %0, -48
  %cmp3.i = icmp ugt i8 %sub.i.i, 9
  br i1 %cmp3.i, label %return, label %if.end.i

if.end.i:                                         ; preds = %entry
  %incdec.ptr.i = getelementptr inbounds i8, ptr %s, i64 1
  %1 = load i8, ptr %incdec.ptr.i, align 1
  %sub.i21.i = add i8 %1, -48
  %cmp21.i = icmp ugt i8 %sub.i21.i, 9
  br i1 %cmp21.i, label %return, label %if.end

if.end:                                           ; preds = %if.end.i
  %narrow.i = mul nuw nsw i8 %sub.i.i, 10
  %add29.i = add nuw nsw i8 %sub.i21.i, %narrow.i
  %add.ptr3 = getelementptr inbounds i8, ptr %s, i64 2
  %2 = load i8, ptr %add.ptr3, align 1
  %sub.i.i4 = add i8 %2, -48
  %cmp3.i5 = icmp ugt i8 %sub.i.i4, 9
  br i1 %cmp3.i5, label %return, label %if.end.i6

if.end.i6:                                        ; preds = %if.end
  %incdec.ptr.i3 = getelementptr inbounds i8, ptr %s, i64 3
  %3 = load i8, ptr %incdec.ptr.i3, align 1
  %sub.i21.i8 = add i8 %3, -48
  %cmp21.i9 = icmp ugt i8 %sub.i21.i8, 9
  br i1 %cmp21.i9, label %return, label %_ZN5arrow8internal13ParseUnsignedEPKcmPh.exit14

_ZN5arrow8internal13ParseUnsignedEPKcmPh.exit14:  ; preds = %if.end.i6
  %narrow.i11 = mul nuw nsw i8 %sub.i.i4, 10
  %add29.i12 = add nuw nsw i8 %sub.i21.i8, %narrow.i11
  %cmp = icmp ugt i8 %add29.i, 23
  %cmp16 = icmp ugt i8 %add29.i12, 59
  %or.cond2 = select i1 %cmp, i1 true, i1 %cmp16
  br i1 %or.cond2, label %return, label %if.end21

if.end21:                                         ; preds = %_ZN5arrow8internal13ParseUnsignedEPKcmPh.exit14
  %conv.i = zext nneg i8 %add29.i to i64
  %conv.i15 = zext nneg i8 %add29.i12 to i64
  %mul.i.i.i.i = mul nuw nsw i64 %conv.i, 60
  %add.i = add nuw nsw i64 %mul.i.i.i.i, %conv.i15
  %mul.i.i = mul nuw nsw i64 %add.i, 60
  store i64 %mul.i.i, ptr %out, align 8
  br label %return

return:                                           ; preds = %if.end.i6, %if.end, %if.end.i, %entry, %_ZN5arrow8internal13ParseUnsignedEPKcmPh.exit14, %if.end21
  %retval.0 = phi i1 [ true, %if.end21 ], [ false, %_ZN5arrow8internal13ParseUnsignedEPKcmPh.exit14 ], [ false, %entry ], [ false, %if.end.i ], [ false, %if.end ], [ false, %if.end.i6 ]
  ret i1 %retval.0
}